; Function Attrs: mustprogress uwtable
define void @_ZN3nix9PublicKeyC2ESt17basic_string_viewIcSt11char_traitsIcEE(ptr noundef nonnull align 8 dereferenceable(64) %0, i64 %1, ptr %2) unnamed_addr #2 align 2 personality ptr @__gxx_personality_v0 {
  %4 = alloca %"class.std::__cxx11::basic_string", align 8
  %5 = alloca %"class.std::allocator", align 1
  tail call void @_ZN3nix3KeyC2ESt17basic_string_viewIcSt11char_traitsIcEE(ptr noundef nonnull align 8 dereferenceable(64) %0, i64 %1, ptr %2)
  %6 = getelementptr inbounds i8, ptr %0, i64 40
  %7 = load i64, ptr %6, align 8
  %.not = icmp eq i64 %7, 32
  br i1 %.not, label %17, label %8

8:                                                ; preds = %3
  %9 = tail call ptr @__cxa_allocate_exception(i64 376) #20
  call void @_ZNSaIcEC1Ev(ptr noundef nonnull align 1 dereferenceable(1) %5) #20
  invoke void @_ZNSt7__cxx1112basic_stringIcSt11char_traitsIcESaIcEEC2IS3_EEPKcRKS3_(ptr noundef nonnull align 8 dereferenceable(32) %4, ptr noundef nonnull @.str.7, ptr noundef nonnull align 1 dereferenceable(1) %5)
          to label %10 unwind label %.thread

10:                                               ; preds = %8
  invoke void @_ZN3nix5ErrorCI2NS_9BaseErrorEIJEEERKNSt7__cxx1112basic_stringIcSt11char_traitsIcESaIcEEEDpRKT_(ptr noundef nonnull align 8 dereferenceable(376) %9, ptr noundef nonnull align 8 dereferenceable(32) %4)
          to label %11 unwind label %13

11:                                               ; preds = %10
  invoke void @__cxa_throw(ptr nonnull %9, ptr nonnull @_ZTIN3nix5ErrorE, ptr nonnull @_ZN3nix5ErrorD2Ev) #21
          to label %18 unwind label %13

.thread:                                          ; preds = %8
  %12 = landingpad { ptr, i32 }
          cleanup
  call void @_ZNSaIcED1Ev(ptr noundef nonnull align 1 dereferenceable(1) %5) #20
  br label %15

13:                                               ; preds = %10, %11
  %.0 = phi i1 [ false, %11 ], [ true, %10 ]
  %14 = landingpad { ptr, i32 }
          cleanup
  call void @_ZNSt7__cxx1112basic_stringIcSt11char_traitsIcESaIcEED2Ev(ptr noundef nonnull align 8 dereferenceable(32) %4) #20
  call void @_ZNSaIcED1Ev(ptr noundef nonnull align 1 dereferenceable(1) %5) #20
  br i1 %.0, label %15, label %16

15:                                               ; preds = %.thread, %13
  %.pn11 = phi { ptr, i32 } [ %12, %.thread ], [ %14, %13 ]
  call void @__cxa_free_exception(ptr %9) #20
  br label %16

16:                                               ; preds = %15, %13
  %.pn10 = phi { ptr, i32 } [ %.pn11, %15 ], [ %14, %13 ]
  call void @_ZN3nix3KeyD2Ev(ptr noundef nonnull align 8 dereferenceable(64) %0) #20
  resume { ptr, i32 } %.pn10

17:                                               ; preds = %3
  ret void

18:                                               ; preds = %11
  unreachable
}